target datalayout = "e-m:e-p270:32:32-p271:32:32-p272:64:64-i64:64-i128:128-f80:128-n8:16:32:64-S128"
target triple = "x86_64-pc-linux-gnu"

%"class.__gnu_cxx::__normal_iterator.68" = type { ptr }
%"class.testing::internal::ValuesInIteratorRangeGenerator<opencv_test::(anonymous namespace)::BorderMode>::Iterator" = type { %"class.testing::internal::ParamIteratorInterface", ptr, %"class.__gnu_cxx::__normal_iterator.68", %"class.testing::internal::scoped_ptr.69" }
%"class.testing::internal::ParamIteratorInterface" = type { ptr }
%"class.testing::internal::scoped_ptr.69" = type { ptr }

; Function Attrs: mustprogress uwtable
define internal void @_ZN7testing8internal10scoped_ptrIKN11opencv_test12_GLOBAL__N_110BorderModeEE5resetEPS5_(ptr noundef nonnull align 8 dereferenceable(8) %0, ptr noundef %1) #5 align 2 {
  %3 = alloca ptr, align 8
  %4 = alloca ptr, align 8
  store ptr %0, ptr %3, align 8
  store ptr %1, ptr %4, align 8
  %5 = load ptr, ptr %3, align 8
  %6 = load ptr, ptr %4, align 8
  %7 = getelementptr inbounds %"class.testing::internal::scoped_ptr.69", ptr %5, i32 0, i32 0
  %8 = load ptr, ptr %7, align 8
  %9 = icmp ne ptr %6, %8
  br i1 %9, label %10, label %21

10:                                               ; preds = %2
  %11 = call noundef zeroext i1 @_ZN7testing8internal6IsTrueEb(i1 noundef zeroext true)
  br i1 %11, label %12, label %18

12:                                               ; preds = %10
  %13 = getelementptr inbounds %"class.testing::internal::scoped_ptr.69", ptr %5, i32 0, i32 0
  %14 = load ptr, ptr %13, align 8
  %15 = icmp eq ptr %14, null
  br i1 %15, label %17, label %16

16:                                               ; preds = %12
  call void @_ZdlPv(ptr noundef %14) #21
  br label %17

17:                                               ; preds = %16, %12
  br label %18

18:                                               ; preds = %17, %10
  %19 = load ptr, ptr %4, align 8
  %20 = getelementptr inbounds %"class.testing::internal::scoped_ptr.69", ptr %5, i32 0, i32 0
  store ptr %19, ptr %20, align 8
  br label %21

21:                                               ; preds = %18, %2
  ret void
}

; Function Attrs: mustprogress nounwind uwtable
define internal void @_ZN7testing8internal22ParamIteratorInterfaceIN11opencv_test12_GLOBAL__N_110BorderModeEED2Ev(ptr noundef nonnull align 8 dereferenceable(8) %0) unnamed_addr #4 align 2 {
  %2 = alloca ptr, align 8
  store ptr %0, ptr %2, align 8
  ret void
}

; Function Attrs: mustprogress nounwind uwtable
define internal void @_ZN7testing8internal10scoped_ptrIKN11opencv_test12_GLOBAL__N_110BorderModeEED2Ev(ptr noundef nonnull align 8 dereferenceable(8) %0) unnamed_addr #4 align 2 personality ptr @__gxx_personality_v0 {
  %2 = alloca ptr, align 8
  store ptr %0, ptr %2, align 8
  %3 = load ptr, ptr %2, align 8
  invoke void @_ZN7testing8internal10scoped_ptrIKN11opencv_test12_GLOBAL__N_110BorderModeEE5resetEPS5_(ptr noundef nonnull align 8 dereferenceable(8) %3, ptr noundef null)
          to label %4 unwind label %5

4:                                                ; preds = %1
  ret void

5:                                                ; preds = %1
  %6 = landingpad { ptr, i32 }
          catch ptr null
  %7 = extractvalue { ptr, i32 } %6, 0
  call void @__clang_call_terminate(ptr %7) #22
  unreachable
}

; Function Attrs: mustprogress nounwind uwtable
define internal void @_ZN7testing8internal30ValuesInIteratorRangeGeneratorIN11opencv_test12_GLOBAL__N_110BorderModeEE8IteratorD2Ev(ptr noundef nonnull align 8 dereferenceable(32) %0) unnamed_addr #4 align 2 {
  %2 = alloca ptr, align 8
  store ptr %0, ptr %2, align 8
  %3 = load ptr, ptr %2, align 8
  store ptr getelementptr inbounds inrange(-16, 56) ({ [9 x ptr] }, ptr @_ZTVN7testing8internal30ValuesInIteratorRangeGeneratorIN11opencv_test12_GLOBAL__N_110BorderModeEE8IteratorE, i32 0, i32 0, i32 2), ptr %3, align 8
  %4 = getelementptr inbounds %"class.testing::internal::ValuesInIteratorRangeGenerator<opencv_test::(anonymous namespace)::BorderMode>::Iterator", ptr %3, i32 0, i32 3
  call void @_ZN7testing8internal10scoped_ptrIKN11opencv_test12_GLOBAL__N_110BorderModeEED2Ev(ptr noundef nonnull align 8 dereferenceable(8) %4) #3
  call void @_ZN7testing8internal22ParamIteratorInterfaceIN11opencv_test12_GLOBAL__N_110BorderModeEED2Ev(ptr noundef nonnull align 8 dereferenceable(8) %3) #3
  ret void
}